; Function Attrs: mustprogress nounwind uwtable
define void @_ZN5folly15RegexMatchCache24ConsistencyReportMatcherD2Ev(ptr noundef nonnull align 8 captures(none) dereferenceable(16) initializes((0, 8)) %0) unnamed_addr #0 align 2 personality ptr @__gxx_personality_v0 {
  store ptr getelementptr inbounds nuw inrange(-16, 24) (i8, ptr @_ZTVN5folly15RegexMatchCache24ConsistencyReportMatcherE, i64 16), ptr %0, align 8, !tbaa !12
  %2 = getelementptr inbounds nuw i8, ptr %0, i64 8
  %3 = load ptr, ptr %2, align 8, !tbaa !7
  %.not.i = icmp eq ptr %3, null
  br i1 %.not.i, label %_ZNSt10unique_ptrIN5folly15RegexMatchCache24ConsistencyReportMatcher5stateESt14default_deleteIS3_EED2Ev.exit, label %_ZNKSt14default_deleteIN5folly15RegexMatchCache24ConsistencyReportMatcher5stateEEclEPS3_.exit.i

_ZNKSt14default_deleteIN5folly15RegexMatchCache24ConsistencyReportMatcher5stateEEclEPS3_.exit.i: ; preds = %1
  tail call void @_ZNSt10_HashtableIN5folly18RegexMatchCacheKeyESt4pairIKS1_NS0_15RegexMatchCache11RegexObjectEESaIS6_ENSt8__detail10_Select1stESt8equal_toIS1_ESt4hashIS1_ENS8_18_Mod_range_hashingENS8_20_Default_ranged_hashENS8_20_Prime_rehash_policyENS8_17_Hashtable_traitsILb0ELb0ELb1EEEED2Ev(ptr noundef nonnull align 8 dereferenceable(56) %3) #39
  tail call void @_ZdlPvm(ptr noundef nonnull %3, i64 noundef 56) #40
  br label %_ZNSt10unique_ptrIN5folly15RegexMatchCache24ConsistencyReportMatcher5stateESt14default_deleteIS3_EED2Ev.exit

_ZNSt10unique_ptrIN5folly15RegexMatchCache24ConsistencyReportMatcher5stateESt14default_deleteIS3_EED2Ev.exit: ; preds = %1, %_ZNKSt14default_deleteIN5folly15RegexMatchCache24ConsistencyReportMatcher5stateEEclEPS3_.exit.i
  store ptr null, ptr %2, align 8, !tbaa !7
  ret void
}